target datalayout = "e-m:e-p270:32:32-p271:32:32-p272:64:64-i64:64-i128:128-f80:128-n8:16:32:64-S128"
target triple = "x86_64-pc-linux-gnu"

@alsa_inited = internal global i32 0, align 4
@.str = private unnamed_addr constant [30 x i8] c"ALSA_ENUMERATE_PCM_SUBDEVICES\00", align 1
@alsa_enumerate_pcm_subdevices = internal global i32 0, align 4
@alsa_enumerate_midi_subdevices = internal global i32 0, align 4
@.str.1 = private unnamed_addr constant [12 x i8] c"%s:%d,%d,%d\00", align 1
@.str.2 = private unnamed_addr constant [7 x i8] c"plughw\00", align 1
@.str.3 = private unnamed_addr constant [3 x i8] c"hw\00", align 1
@.str.4 = private unnamed_addr constant [9 x i8] c"%s:%d,%d\00", align 1

; Function Attrs: nounwind uwtable
define hidden void @initAlsaSupport() #0 {
  %1 = alloca ptr, align 8
  %2 = load i32, ptr @alsa_inited, align 4
  %3 = icmp ne i32 %2, 0
  br i1 %3, label %39, label %4

4:                                                ; preds = %0
  store i32 1, ptr @alsa_inited, align 4
  %5 = call i32 @snd_lib_error_set_handler(ptr noundef @alsaDebugOutput)
  %6 = call ptr @getenv(ptr noundef @.str) #4
  store ptr %6, ptr %1, align 8
  %7 = load ptr, ptr %1, align 8
  %8 = icmp ne ptr %7, null
  br i1 %8, label %9, label %38

9:                                                ; preds = %4
  %10 = load ptr, ptr %1, align 8
  %11 = call i64 @strlen(ptr noundef %10) #5
  %12 = icmp ugt i64 %11, 0
  br i1 %12, label %13, label %38

13:                                               ; preds = %9
  %14 = load ptr, ptr %1, align 8
  %15 = getelementptr inbounds i8, ptr %14, i64 0
  %16 = load i8, ptr %15, align 1
  %17 = sext i8 %16 to i32
  %18 = icmp ne i32 %17, 102
  br i1 %18, label %19, label %38

19:                                               ; preds = %13
  %20 = load ptr, ptr %1, align 8
  %21 = getelementptr inbounds i8, ptr %20, i64 0
  %22 = load i8, ptr %21, align 1
  %23 = sext i8 %22 to i32
  %24 = icmp ne i32 %23, 70
  br i1 %24, label %25, label %38

25:                                               ; preds = %19
  %26 = load ptr, ptr %1, align 8
  %27 = getelementptr inbounds i8, ptr %26, i64 0
  %28 = load i8, ptr %27, align 1
  %29 = sext i8 %28 to i32
  %30 = icmp ne i32 %29, 110
  br i1 %30, label %31, label %38

31:                                               ; preds = %25
  %32 = load ptr, ptr %1, align 8
  %33 = getelementptr inbounds i8, ptr %32, i64 0
  %34 = load i8, ptr %33, align 1
  %35 = sext i8 %34 to i32
  %36 = icmp ne i32 %35, 78
  br i1 %36, label %37, label %38

37:                                               ; preds = %31
  store i32 1, ptr @alsa_enumerate_pcm_subdevices, align 4
  br label %38

38:                                               ; preds = %37, %31, %25, %19, %13, %9, %4
  store i32 1, ptr @alsa_enumerate_midi_subdevices, align 4
  br label %39

39:                                               ; preds = %38, %0
  ret void
}

; Function Attrs: nounwind uwtable
define hidden i32 @needEnumerateSubdevices(i32 noundef %0) #0 {
  %2 = alloca i32, align 4
  store i32 %0, ptr %2, align 4
  call void @initAlsaSupport()
  %3 = load i32, ptr %2, align 4
  %4 = icmp ne i32 %3, 0
  br i1 %4, label %5, label %7

5:                                                ; preds = %1
  %6 = load i32, ptr @alsa_enumerate_midi_subdevices, align 4
  br label %9

7:                                                ; preds = %1
  %8 = load i32, ptr @alsa_enumerate_pcm_subdevices, align 4
  br label %9

9:                                                ; preds = %7, %5
  %10 = phi i32 [ %6, %5 ], [ %8, %7 ]
  ret i32 %10
}

; Function Attrs: nounwind uwtable
define hidden void @getDeviceString(ptr noundef %0, i64 noundef %1, i32 noundef %2, i32 noundef %3, i32 noundef %4, i32 noundef %5, i32 noundef %6) #0 {
  %8 = alloca ptr, align 8
  %9 = alloca i64, align 8
  %10 = alloca i32, align 4
  %11 = alloca i32, align 4
  %12 = alloca i32, align 4
  %13 = alloca i32, align 4
  %14 = alloca i32, align 4
  store ptr %0, ptr %8, align 8
  store i64 %1, ptr %9, align 8
  store i32 %2, ptr %10, align 4
  store i32 %3, ptr %11, align 4
  store i32 %4, ptr %12, align 4
  store i32 %5, ptr %13, align 4
  store i32 %6, ptr %14, align 4
  %15 = load i32, ptr %14, align 4
  %16 = call i32 @needEnumerateSubdevices(i32 noundef %15)
  %17 = icmp ne i32 %16, 0
  br i1 %17, label %18, label %28

18:                                               ; preds = %7
  %19 = load ptr, ptr %8, align 8
  %20 = load i64, ptr %9, align 8
  %21 = load i32, ptr %13, align 4
  %22 = icmp ne i32 %21, 0
  %23 = select i1 %22, ptr @.str.2, ptr @.str.3
  %24 = load i32, ptr %10, align 4
  %25 = load i32, ptr %11, align 4
  %26 = load i32, ptr %12, align 4
  %27 = call i32 (ptr, i64, ptr, ...) @snprintf(ptr noundef %19, i64 noundef %20, ptr noundef @.str.1, ptr noundef %23, i32 noundef %24, i32 noundef %25, i32 noundef %26) #4
  br label %37

28:                                               ; preds = %7
  %29 = load ptr, ptr %8, align 8
  %30 = load i64, ptr %9, align 8
  %31 = load i32, ptr %13, align 4
  %32 = icmp ne i32 %31, 0
  %33 = select i1 %32, ptr @.str.2, ptr @.str.3
  %34 = load i32, ptr %10, align 4
  %35 = load i32, ptr %11, align 4
  %36 = call i32 (ptr, i64, ptr, ...) @snprintf(ptr noundef %29, i64 noundef %30, ptr noundef @.str.4, ptr noundef %33, i32 noundef %34, i32 noundef %35) #4
  br label %37

37:                                               ; preds = %28, %18
  ret void
}