; Function Attrs: nounwind uwtable
define hidden void @getDeviceString(ptr nocapture noundef writeonly %0, i64 noundef %1, i32 noundef %2, i32 noundef %3, i32 noundef %4, i32 noundef %5, i32 noundef %6) local_unnamed_addr #0 {
  %.b.i.i = load i1, ptr @alsa_inited, align 4
  br i1 %.b.i.i, label %.initAlsaSupport.exit_crit_edge.i, label %8

.initAlsaSupport.exit_crit_edge.i:                ; preds = %7
  %.b1.pre.i = load i1, ptr @alsa_enumerate_midi_subdevices, align 4
  br label %needEnumerateSubdevices.exit

8:                                                ; preds = %7
  store i1 true, ptr @alsa_inited, align 4
  %9 = tail call i32 @snd_lib_error_set_handler(ptr noundef nonnull @alsaDebugOutput) #9
  %10 = tail call ptr @getenv(ptr noundef nonnull @.str) #9
  %.not.i.i = icmp eq ptr %10, null
  br i1 %.not.i.i, label %16, label %11

11:                                               ; preds = %8
  %char0.i.i = load i8, ptr %10, align 1
  %.not7.i.i = icmp eq i8 %char0.i.i, 0
  br i1 %.not7.i.i, label %16, label %12

12:                                               ; preds = %11
  %13 = add i8 %char0.i.i, -70
  %14 = tail call i8 @llvm.fshl.i8(i8 %13, i8 %13, i8 5)
  switch i8 %14, label %15 [
    i8 4, label %16
    i8 0, label %16
    i8 5, label %16
    i8 1, label %16
  ]

15:                                               ; preds = %12
  store i1 true, ptr @alsa_enumerate_pcm_subdevices, align 4
  br label %16

16:                                               ; preds = %15, %12, %12, %12, %12, %11, %8
  store i1 true, ptr @alsa_enumerate_midi_subdevices, align 4
  br label %needEnumerateSubdevices.exit

needEnumerateSubdevices.exit:                     ; preds = %.initAlsaSupport.exit_crit_edge.i, %16
  %.b1.i = phi i1 [ %.b1.pre.i, %.initAlsaSupport.exit_crit_edge.i ], [ true, %16 ]
  %.not.i = icmp eq i32 %6, 0
  %.b.i = load i1, ptr @alsa_enumerate_pcm_subdevices, align 4
  %.v.i = select i1 %.not.i, i1 %.b.i, i1 %.b1.i
  %.not12 = icmp eq i32 %5, 0
  %17 = select i1 %.not12, ptr @.str.3, ptr @.str.2
  br i1 %.v.i, label %18, label %20

18:                                               ; preds = %needEnumerateSubdevices.exit
  %19 = tail call i32 (ptr, i64, ptr, ...) @snprintf(ptr noundef %0, i64 noundef %1, ptr noundef nonnull @.str.1, ptr noundef nonnull %17, i32 noundef %2, i32 noundef %3, i32 noundef %4) #9
  br label %22

20:                                               ; preds = %needEnumerateSubdevices.exit
  %21 = tail call i32 (ptr, i64, ptr, ...) @snprintf(ptr noundef %0, i64 noundef %1, ptr noundef nonnull @.str.4, ptr noundef nonnull %17, i32 noundef %2, i32 noundef %3) #9
  br label %22

22:                                               ; preds = %20, %18
  ret void
}